target datalayout = "e-m:e-p270:32:32-p271:32:32-p272:64:64-i64:64-i128:128-f80:128-n8:16:32:64-S128"
target triple = "x86_64-pc-linux-gnu"

%struct._GLFWlibrary = type { i32, %struct.GLFWallocator, %struct._GLFWplatform, %struct.anon, ptr, ptr, ptr, ptr, i32, i32, [16 x %struct._GLFWjoystick], ptr, i32, %struct._GLFWtls, %struct._GLFWtls, %struct._GLFWmutex, %struct.anon.8, %struct.anon.9, %struct.anon.10, %struct.anon.11, %struct.anon.12, %struct._GLFWlibraryWayland, %struct._GLFWlibraryX11, %struct._GLFWlibraryNull, %struct._GLFWlibraryGLX, %struct._GLFWlibraryLinux }
%struct.GLFWallocator = type { ptr, ptr, ptr, ptr }
%struct._GLFWplatform = type { i32, ptr, ptr, ptr, ptr, ptr, ptr, ptr, ptr, ptr, ptr, ptr, ptr, ptr, ptr, ptr, ptr, ptr, ptr, ptr, ptr, ptr, ptr, ptr, ptr, ptr, ptr, ptr, ptr, ptr, ptr, ptr, ptr, ptr, ptr, ptr, ptr, ptr, ptr, ptr, ptr, ptr, ptr, ptr, ptr, ptr, ptr, ptr, ptr, ptr, ptr, ptr, ptr, ptr, ptr, ptr, ptr, ptr, ptr, ptr, ptr, ptr, ptr, ptr, ptr, ptr, ptr, ptr, ptr, ptr, ptr, ptr }
%struct.anon = type { %struct._GLFWinitconfig, %struct._GLFWfbconfig, %struct._GLFWwndconfig, %struct._GLFWctxconfig, i32 }
%struct._GLFWinitconfig = type { i32, i32, i32, ptr, %struct.anon.0, %struct.anon.1, %struct.anon.2 }
%struct.anon.0 = type { i32, i32 }
%struct.anon.1 = type { i32 }
%struct.anon.2 = type { i32 }
%struct._GLFWfbconfig = type { i32, i32, i32, i32, i32, i32, i32, i32, i32, i32, i32, i32, i32, i32, i32, i32, i64 }
%struct._GLFWwndconfig = type { i32, i32, i32, i32, ptr, i32, i32, i32, i32, i32, i32, i32, i32, i32, i32, i32, i32, %struct.anon.3, %struct.anon.4, %struct.anon.5, %struct.anon.6 }
%struct.anon.3 = type { [256 x i8] }
%struct.anon.4 = type { [256 x i8], [256 x i8] }
%struct.anon.5 = type { i32, i32 }
%struct.anon.6 = type { [256 x i8] }
%struct._GLFWctxconfig = type { i32, i32, i32, i32, i32, i32, i32, i32, i32, i32, ptr, %struct.anon.7 }
%struct.anon.7 = type { i32 }
%struct._GLFWjoystick = type { i32, i32, ptr, i32, ptr, i32, ptr, i32, [128 x i8], ptr, [33 x i8], ptr, %struct._GLFWjoystickLinux }
%struct._GLFWjoystickLinux = type { i32, [4096 x i8], [512 x i32], [64 x i32], [64 x %struct.input_absinfo], [4 x [2 x i32]] }
%struct.input_absinfo = type { i32, i32, i32, i32, i32, i32 }
%struct._GLFWtls = type { %struct._GLFWtlsPOSIX }
%struct._GLFWtlsPOSIX = type { i32, i32 }
%struct._GLFWmutex = type { %struct._GLFWmutexPOSIX }
%struct._GLFWmutexPOSIX = type { i32, %union.pthread_mutex_t }
%union.pthread_mutex_t = type { %struct.__pthread_mutex_s }
%struct.__pthread_mutex_s = type { i32, i32, i32, i32, i32, i16, i16, %struct.__pthread_internal_list }
%struct.__pthread_internal_list = type { ptr, ptr }
%struct.anon.8 = type { i64, %struct._GLFWtimerPOSIX }
%struct._GLFWtimerPOSIX = type { i32, i64 }
%struct.anon.9 = type { i32, ptr, i32, i32, i32, i32, i32, i32, i32, i32, i32, i32, i32, i32, i32, i32, i32, i32, i32, i32, ptr, ptr, ptr, ptr, ptr, ptr, ptr, ptr, ptr, ptr, ptr, ptr, ptr, ptr, ptr, ptr, ptr, ptr, ptr }
%struct.anon.10 = type { ptr, ptr, ptr, ptr, ptr, ptr, ptr, ptr }
%struct.anon.11 = type { i32, ptr, [2 x ptr], ptr, i32, i32, i32, i32, i32, i32, i32 }
%struct.anon.12 = type { ptr, ptr }
%struct._GLFWlibraryWayland = type { ptr, ptr, ptr, ptr, ptr, ptr, ptr, ptr, ptr, ptr, ptr, ptr, ptr, ptr, ptr, ptr, ptr, ptr, ptr, i32, ptr, ptr, ptr, ptr, i32, ptr, ptr, ptr, ptr, ptr, i32, i32, i32, i32, i32, i32, i32, ptr, [256 x i16], [349 x i16], [349 x [5 x i8]], %struct.anon.13, ptr, ptr, %struct.anon.14, %struct.anon.15, %struct.anon.16, %struct.anon.17 }
%struct.anon.13 = type { ptr, ptr, ptr, ptr, ptr, i32, i32, i32, i32, i32, i32, i32, ptr, ptr, ptr, ptr, ptr, ptr, ptr, ptr, ptr, ptr, ptr, ptr, ptr, ptr, ptr, ptr, ptr, ptr, ptr, ptr }
%struct.anon.14 = type { ptr, ptr, ptr, ptr, ptr, ptr, ptr, ptr, ptr, ptr, ptr, ptr, ptr, ptr, ptr, ptr, ptr, ptr, ptr, ptr }
%struct.anon.15 = type { ptr, ptr, ptr, ptr, ptr }
%struct.anon.16 = type { ptr, ptr, ptr, ptr }
%struct.anon.17 = type { ptr, ptr, ptr, i32, ptr, ptr, ptr, ptr, ptr, ptr, ptr, ptr, ptr, ptr, ptr, ptr, ptr, ptr, ptr, ptr, ptr, ptr, ptr, ptr, ptr, ptr, ptr, ptr, ptr }
%struct._GLFWlibraryX11 = type { ptr, i32, i64, float, float, i64, i64, i32, ptr, ptr, i32, ptr, ptr, [349 x [5 x i8]], [256 x i16], [349 x i16], double, double, ptr, [2 x i32], i64, i64, i64, i64, i64, i64, i64, i64, i64, i64, i64, i64, i64, i64, i64, i64, i64, i64, i64, i64, i64, i64, i64, i64, i64, i64, i64, i64, i64, i64, i64, i64, i64, i64, i64, i64, i64, i64, i64, i64, i64, i64, i64, i64, i64, i64, i64, i64, i64, i64, %struct.anon.18, %struct.anon.19, %struct.anon.20, %struct.anon.21, %struct.anon.22, %struct.anon.23, %struct.anon.24, %struct.anon.25, %struct.anon.26, %struct.anon.27, %struct.anon.28, %struct.anon.29, %struct.anon.30 }
%struct.anon.18 = type { ptr, i32, ptr, ptr, ptr, ptr, ptr, ptr, ptr, ptr, ptr, ptr, ptr, ptr, ptr, ptr, ptr, ptr, ptr, ptr, ptr, ptr, ptr, ptr, ptr, ptr, ptr, ptr, ptr, ptr, ptr, ptr, ptr, ptr, ptr, ptr, ptr, ptr, ptr, ptr, ptr, ptr, ptr, ptr, ptr, ptr, ptr, ptr, ptr, ptr, ptr, ptr, ptr, ptr, ptr, ptr, ptr, ptr, ptr, ptr, ptr, ptr, ptr, ptr, ptr, ptr, ptr, ptr, ptr, ptr, ptr, ptr, ptr, ptr, ptr, ptr, ptr, ptr, ptr, ptr, ptr, ptr, ptr, ptr, ptr, ptr, ptr, ptr }
%struct.anon.19 = type { ptr, ptr, ptr, ptr }
%struct.anon.20 = type { i32, ptr, i32, i32, i32, i32, i32, i32, ptr, ptr, ptr, ptr, ptr, ptr, ptr, ptr, ptr, ptr, ptr, ptr, ptr, ptr, ptr, ptr, ptr }
%struct.anon.21 = type { i32, i32, i32, i32, i32, i32, i32, i32, ptr, ptr, ptr, ptr, ptr, ptr, ptr, ptr, ptr }
%struct.anon.22 = type { i32, i32, i32, i32, i32 }
%struct.anon.23 = type { i32, i64, i64 }
%struct.anon.24 = type { ptr, ptr, ptr, ptr, ptr, ptr, ptr }
%struct.anon.25 = type { i32, ptr, i32, i32, ptr, ptr, ptr }
%struct.anon.26 = type { ptr, ptr }
%struct.anon.27 = type { i32, ptr, i32, i32, ptr, ptr, ptr, ptr }
%struct.anon.28 = type { i32, ptr, i32, i32, i32, i32, i32, ptr, ptr }
%struct.anon.29 = type { i32, ptr, i32, i32, i32, i32, ptr, ptr, ptr }
%struct.anon.30 = type { i32, ptr, i32, i32, i32, i32, ptr, ptr, ptr, ptr }
%struct._GLFWlibraryNull = type { i32, i32, ptr, ptr, [121 x i16], [349 x i8] }
%struct._GLFWlibraryGLX = type { i32, i32, i32, i32, ptr, ptr, ptr, ptr, ptr, ptr, ptr, ptr, ptr, ptr, ptr, ptr, ptr, ptr, ptr, ptr, ptr, ptr, ptr, ptr, i32, i32, i32, i32, i32, i32, i32, i32, i32, i32, i32, i32 }
%struct._GLFWlibraryLinux = type { i32, i32, %struct.re_pattern_buffer, i32, i32 }
%struct.re_pattern_buffer = type { ptr, i64, i64, i64, ptr, ptr, i64, i8 }

@_glfw = external global %struct._GLFWlibrary, align 8
@.str.7 = private unnamed_addr constant [29 x i8] c"Wayland: Invalid scancode %i\00", align 1
@.str.8 = private unnamed_addr constant [48 x i8] c"Wayland: Failed to retrieve layout for key name\00", align 1
@.str.9 = private unnamed_addr constant [48 x i8] c"Wayland: Failed to retrieve keysym for key name\00", align 1
@.str.10 = private unnamed_addr constant [51 x i8] c"Wayland: Failed to retrieve codepoint for key name\00", align 1
@.str.11 = private unnamed_addr constant [49 x i8] c"Wayland: Failed to encode codepoint for key name\00", align 1

; Function Attrs: nounwind uwtable
define hidden ptr @_glfwGetScancodeNameWayland(i32 noundef %0) #0 {
  %2 = alloca ptr, align 8
  %3 = alloca i32, align 4
  %4 = alloca i32, align 4
  %5 = alloca i32, align 4
  %6 = alloca i32, align 4
  %7 = alloca i32, align 4
  %8 = alloca ptr, align 8
  %9 = alloca i32, align 4
  %10 = alloca i64, align 8
  store i32 %0, ptr %3, align 4, !tbaa !129
  %11 = load i32, ptr %3, align 4, !tbaa !129
  %12 = icmp slt i32 %11, 0
  br i1 %12, label %16, label %13

13:                                               ; preds = %1
  %14 = load i32, ptr %3, align 4, !tbaa !129
  %15 = icmp sgt i32 %14, 255
  br i1 %15, label %16, label %18

16:                                               ; preds = %13, %1
  %17 = load i32, ptr %3, align 4, !tbaa !129
  call void (i32, ptr, ...) @_glfwInputError(i32 noundef 65540, ptr noundef @.str.7, i32 noundef %17)
  store ptr null, ptr %2, align 8
  br label %79

18:                                               ; preds = %13
  call void @llvm.lifetime.start.p0(i64 4, ptr %4) #9
  %19 = load i32, ptr %3, align 4, !tbaa !129
  %20 = sext i32 %19 to i64
  %21 = getelementptr inbounds [256 x i16], ptr getelementptr inbounds nuw (%struct._GLFWlibraryWayland, ptr getelementptr inbounds nuw (%struct._GLFWlibrary, ptr @_glfw, i32 0, i32 21), i32 0, i32 38), i64 0, i64 %20
  %22 = load i16, ptr %21, align 2, !tbaa !345
  %23 = sext i16 %22 to i32
  store i32 %23, ptr %4, align 4, !tbaa !129
  %24 = load i32, ptr %4, align 4, !tbaa !129
  %25 = icmp eq i32 %24, -1
  br i1 %25, label %26, label %27

26:                                               ; preds = %18
  store ptr null, ptr %2, align 8
  store i32 1, ptr %5, align 4
  br label %78

27:                                               ; preds = %18
  call void @llvm.lifetime.start.p0(i64 4, ptr %6) #9
  %28 = load i32, ptr %3, align 4, !tbaa !129
  %29 = add nsw i32 %28, 8
  store i32 %29, ptr %6, align 4, !tbaa !129
  call void @llvm.lifetime.start.p0(i64 4, ptr %7) #9
  %30 = load ptr, ptr getelementptr inbounds nuw (%struct.anon.13, ptr getelementptr inbounds nuw (%struct._GLFWlibraryWayland, ptr getelementptr inbounds nuw (%struct._GLFWlibrary, ptr @_glfw, i32 0, i32 21), i32 0, i32 41), i32 0, i32 23), align 8, !tbaa !346
  %31 = load ptr, ptr getelementptr inbounds nuw (%struct.anon.13, ptr getelementptr inbounds nuw (%struct._GLFWlibraryWayland, ptr getelementptr inbounds nuw (%struct._GLFWlibrary, ptr @_glfw, i32 0, i32 21), i32 0, i32 41), i32 0, i32 3), align 8, !tbaa !347
  %32 = load i32, ptr %6, align 4, !tbaa !129
  %33 = call i32 %30(ptr noundef %31, i32 noundef %32)
  store i32 %33, ptr %7, align 4, !tbaa !129
  %34 = load i32, ptr %7, align 4, !tbaa !129
  %35 = icmp eq i32 %34, -1
  br i1 %35, label %36, label %37

36:                                               ; preds = %27
  call void (i32, ptr, ...) @_glfwInputError(i32 noundef 65544, ptr noundef @.str.8)
  store ptr null, ptr %2, align 8
  store i32 1, ptr %5, align 4
  br label %77

37:                                               ; preds = %27
  call void @llvm.lifetime.start.p0(i64 8, ptr %8) #9
  store ptr null, ptr %8, align 8, !tbaa !257
  %38 = load ptr, ptr getelementptr inbounds nuw (%struct.anon.13, ptr getelementptr inbounds nuw (%struct._GLFWlibraryWayland, ptr getelementptr inbounds nuw (%struct._GLFWlibrary, ptr @_glfw, i32 0, i32 21), i32 0, i32 41), i32 0, i32 18), align 8, !tbaa !348
  %39 = load ptr, ptr getelementptr inbounds nuw (%struct.anon.13, ptr getelementptr inbounds nuw (%struct._GLFWlibraryWayland, ptr getelementptr inbounds nuw (%struct._GLFWlibrary, ptr @_glfw, i32 0, i32 21), i32 0, i32 41), i32 0, i32 2), align 8, !tbaa !349
  %40 = load i32, ptr %6, align 4, !tbaa !129
  %41 = load i32, ptr %7, align 4, !tbaa !129
  %42 = call i32 %38(ptr noundef %39, i32 noundef %40, i32 noundef %41, i32 noundef 0, ptr noundef %8)
  %43 = load ptr, ptr %8, align 8, !tbaa !257
  %44 = icmp eq ptr %43, null
  br i1 %44, label %45, label %46

45:                                               ; preds = %37
  call void (i32, ptr, ...) @_glfwInputError(i32 noundef 65544, ptr noundef @.str.9)
  store ptr null, ptr %2, align 8
  store i32 1, ptr %5, align 4
  br label %76

46:                                               ; preds = %37
  call void @llvm.lifetime.start.p0(i64 4, ptr %9) #9
  %47 = load ptr, ptr %8, align 8, !tbaa !257
  %48 = getelementptr inbounds i32, ptr %47, i64 0
  %49 = load i32, ptr %48, align 4, !tbaa !129
  %50 = call i32 @_glfwKeySym2Unicode(i32 noundef %49)
  store i32 %50, ptr %9, align 4, !tbaa !129
  %51 = load i32, ptr %9, align 4, !tbaa !129
  %52 = icmp eq i32 %51, -1
  br i1 %52, label %53, label %54

53:                                               ; preds = %46
  call void (i32, ptr, ...) @_glfwInputError(i32 noundef 65544, ptr noundef @.str.10)
  store ptr null, ptr %2, align 8
  store i32 1, ptr %5, align 4
  br label %75

54:                                               ; preds = %46
  call void @llvm.lifetime.start.p0(i64 8, ptr %10) #9
  %55 = load i32, ptr %4, align 4, !tbaa !129
  %56 = sext i32 %55 to i64
  %57 = getelementptr inbounds [349 x [5 x i8]], ptr getelementptr inbounds nuw (%struct._GLFWlibraryWayland, ptr getelementptr inbounds nuw (%struct._GLFWlibrary, ptr @_glfw, i32 0, i32 21), i32 0, i32 40), i64 0, i64 %56
  %58 = getelementptr inbounds [5 x i8], ptr %57, i64 0, i64 0
  %59 = load i32, ptr %9, align 4, !tbaa !129
  %60 = call i64 @_glfwEncodeUTF8(ptr noundef %58, i32 noundef %59)
  store i64 %60, ptr %10, align 8, !tbaa !130
  %61 = load i64, ptr %10, align 8, !tbaa !130
  %62 = icmp eq i64 %61, 0
  br i1 %62, label %63, label %64

63:                                               ; preds = %54
  call void (i32, ptr, ...) @_glfwInputError(i32 noundef 65544, ptr noundef @.str.11)
  store ptr null, ptr %2, align 8
  store i32 1, ptr %5, align 4
  br label %74

64:                                               ; preds = %54
  %65 = load i32, ptr %4, align 4, !tbaa !129
  %66 = sext i32 %65 to i64
  %67 = getelementptr inbounds [349 x [5 x i8]], ptr getelementptr inbounds nuw (%struct._GLFWlibraryWayland, ptr getelementptr inbounds nuw (%struct._GLFWlibrary, ptr @_glfw, i32 0, i32 21), i32 0, i32 40), i64 0, i64 %66
  %68 = load i64, ptr %10, align 8, !tbaa !130
  %69 = getelementptr inbounds nuw [5 x i8], ptr %67, i64 0, i64 %68
  store i8 0, ptr %69, align 1, !tbaa !350
  %70 = load i32, ptr %4, align 4, !tbaa !129
  %71 = sext i32 %70 to i64
  %72 = getelementptr inbounds [349 x [5 x i8]], ptr getelementptr inbounds nuw (%struct._GLFWlibraryWayland, ptr getelementptr inbounds nuw (%struct._GLFWlibrary, ptr @_glfw, i32 0, i32 21), i32 0, i32 40), i64 0, i64 %71
  %73 = getelementptr inbounds [5 x i8], ptr %72, i64 0, i64 0
  store ptr %73, ptr %2, align 8
  store i32 1, ptr %5, align 4
  br label %74

74:                                               ; preds = %64, %63
  call void @llvm.lifetime.end.p0(i64 8, ptr %10) #9
  br label %75

75:                                               ; preds = %74, %53
  call void @llvm.lifetime.end.p0(i64 4, ptr %9) #9
  br label %76

76:                                               ; preds = %75, %45
  call void @llvm.lifetime.end.p0(i64 8, ptr %8) #9
  br label %77

77:                                               ; preds = %76, %36
  call void @llvm.lifetime.end.p0(i64 4, ptr %7) #9
  call void @llvm.lifetime.end.p0(i64 4, ptr %6) #9
  br label %78

78:                                               ; preds = %77, %26
  call void @llvm.lifetime.end.p0(i64 4, ptr %4) #9
  br label %79

79:                                               ; preds = %78, %16
  %80 = load ptr, ptr %2, align 8
  ret ptr %80
}