; Function Attrs: nounwind uwtable
define hidden noundef ptr @_glfwGetScancodeNameWayland(i32 noundef %0) local_unnamed_addr #0 {
  %2 = alloca ptr, align 8
  %or.cond = icmp ugt i32 %0, 255
  br i1 %or.cond, label %3, label %4

3:                                                ; preds = %1
  tail call void (i32, ptr, ...) @_glfwInputError(i32 noundef 65540, ptr noundef nonnull @.str.7, i32 noundef %0) #20
  br label %37

4:                                                ; preds = %1
  %5 = zext nneg i32 %0 to i64
  %6 = getelementptr inbounds nuw [256 x i16], ptr getelementptr inbounds nuw (i8, ptr @_glfw, i64 134168), i64 0, i64 %5
  %7 = load i16, ptr %6, align 2, !tbaa !282
  %8 = icmp eq i16 %7, -1
  br i1 %8, label %37, label %9

9:                                                ; preds = %4
  %10 = add nuw nsw i32 %0, 8
  %11 = load ptr, ptr getelementptr inbounds nuw (i8, ptr @_glfw, i64 137288), align 8, !tbaa !308
  %12 = load ptr, ptr getelementptr inbounds nuw (i8, ptr @_glfw, i64 137152), align 8, !tbaa !309
  %13 = tail call i32 %11(ptr noundef %12, i32 noundef %10) #20
  %14 = icmp eq i32 %13, -1
  br i1 %14, label %15, label %16

15:                                               ; preds = %9
  tail call void (i32, ptr, ...) @_glfwInputError(i32 noundef 65544, ptr noundef nonnull @.str.8) #20
  br label %37

16:                                               ; preds = %9
  call void @llvm.lifetime.start.p0(i64 8, ptr nonnull %2) #20
  store ptr null, ptr %2, align 8, !tbaa !310
  %17 = load ptr, ptr getelementptr inbounds nuw (i8, ptr @_glfw, i64 137248), align 8, !tbaa !312
  %18 = load ptr, ptr getelementptr inbounds nuw (i8, ptr @_glfw, i64 137144), align 8, !tbaa !313
  %19 = call i32 %17(ptr noundef %18, i32 noundef %10, i32 noundef %13, i32 noundef 0, ptr noundef nonnull %2) #20
  %20 = load ptr, ptr %2, align 8, !tbaa !310
  %21 = icmp eq ptr %20, null
  br i1 %21, label %22, label %23

22:                                               ; preds = %16
  call void (i32, ptr, ...) @_glfwInputError(i32 noundef 65544, ptr noundef nonnull @.str.9) #20
  br label %36

23:                                               ; preds = %16
  %24 = load i32, ptr %20, align 4, !tbaa !147
  %25 = call i32 @_glfwKeySym2Unicode(i32 noundef %24) #20
  %26 = icmp eq i32 %25, -1
  br i1 %26, label %27, label %28

27:                                               ; preds = %23
  call void (i32, ptr, ...) @_glfwInputError(i32 noundef 65544, ptr noundef nonnull @.str.10) #20
  br label %36

28:                                               ; preds = %23
  %29 = sext i16 %7 to i64
  %30 = getelementptr inbounds [349 x [5 x i8]], ptr getelementptr inbounds nuw (i8, ptr @_glfw, i64 135378), i64 0, i64 %29
  %31 = call i64 @_glfwEncodeUTF8(ptr noundef nonnull %30, i32 noundef %25) #20
  %32 = icmp eq i64 %31, 0
  br i1 %32, label %33, label %34

33:                                               ; preds = %28
  call void (i32, ptr, ...) @_glfwInputError(i32 noundef 65544, ptr noundef nonnull @.str.11) #20
  br label %36

34:                                               ; preds = %28
  %35 = getelementptr inbounds [349 x [5 x i8]], ptr getelementptr inbounds nuw (i8, ptr @_glfw, i64 135378), i64 0, i64 %29, i64 %31
  store i8 0, ptr %35, align 1, !tbaa !314
  br label %36

36:                                               ; preds = %27, %34, %33, %22
  %.3 = phi ptr [ null, %22 ], [ null, %27 ], [ null, %33 ], [ %30, %34 ]
  call void @llvm.lifetime.end.p0(i64 8, ptr nonnull %2) #20
  br label %37

37:                                               ; preds = %4, %36, %15, %3
  %.0 = phi ptr [ null, %3 ], [ null, %4 ], [ null, %15 ], [ %.3, %36 ]
  ret ptr %.0
}